target datalayout = "e-m:e-p270:32:32-p271:32:32-p272:64:64-i64:64-i128:128-f80:128-n8:16:32:64-S128"
target triple = "x86_64-pc-linux-gnu"

%struct.Map_NodeStruct_t_ = type { ptr, ptr, i32, i32, i32, i32, [3 x i32], [3 x float], float, ptr, ptr, ptr, ptr, [2 x %struct.Map_TimeStruct_t_], [2 x %struct.Map_TimeStruct_t_], [2 x ptr], ptr, ptr, ptr }
%struct.Map_TimeStruct_t_ = type { float, float, float }
%struct.Map_ManStruct_t_ = type { ptr, i32, ptr, i32, ptr, i32, i32, ptr, ptr, ptr, ptr, ptr, ptr, ptr, ptr, i32, i32, i32, i32, float, float, float, float, i32, i32, float, i32, i32, i32, i32, ptr, [6 x [2 x i32]], [10 x [32 x i32]], [32 x i32], [32 x i32], ptr, ptr, ptr, ptr, ptr, ptr, i32, i32, i32, i32, i32, i32, i64, i64, i64, i64, i64, i64, i64, i64, i64, i64, i64 }
%struct.Map_NodeVecStruct_t_ = type { ptr, i32, i32 }
%struct.Map_SuperLibStruct_t_ = type { ptr, ptr, i32, i32, i32, i32, i32, ptr, ptr, ptr, [6 x [2 x i32]], [2 x i32], ptr, %struct.Map_TimeStruct_t_, float, float, ptr, ptr, ptr, ptr }

; Function Attrs: nounwind uwtable
define void @Map_MappingSetRefs(ptr noundef %0) #0 {
  %2 = alloca ptr, align 8
  %3 = alloca ptr, align 8
  %4 = alloca i32, align 4
  store ptr %0, ptr %2, align 8, !tbaa !14
  call void @llvm.lifetime.start.p0(i64 8, ptr %3) #4
  call void @llvm.lifetime.start.p0(i64 4, ptr %4) #4
  %5 = load ptr, ptr %2, align 8, !tbaa !14
  %6 = getelementptr inbounds nuw %struct.Map_ManStruct_t_, ptr %5, i32 0, i32 29
  %7 = load i32, ptr %6, align 8, !tbaa !63
  %8 = icmp ne i32 %7, 0
  br i1 %8, label %9, label %15

9:                                                ; preds = %1
  %10 = load ptr, ptr %2, align 8, !tbaa !14
  %11 = getelementptr inbounds nuw %struct.Map_ManStruct_t_, ptr %10, i32 0, i32 30
  %12 = load ptr, ptr %11, align 8, !tbaa !54
  %13 = getelementptr inbounds nuw %struct.Map_SuperLibStruct_t_, ptr %12, i32 0, i32 1
  %14 = load ptr, ptr %13, align 8, !tbaa !65
  call void @Mio_LibraryCleanProfile2(ptr noundef %14)
  br label %15

15:                                               ; preds = %9, %1
  store i32 0, ptr %4, align 4, !tbaa !8
  br label %16

16:                                               ; preds = %43, %15
  %17 = load i32, ptr %4, align 4, !tbaa !8
  %18 = load ptr, ptr %2, align 8, !tbaa !14
  %19 = getelementptr inbounds nuw %struct.Map_ManStruct_t_, ptr %18, i32 0, i32 8
  %20 = load ptr, ptr %19, align 8, !tbaa !16
  %21 = getelementptr inbounds nuw %struct.Map_NodeVecStruct_t_, ptr %20, i32 0, i32 1
  %22 = load i32, ptr %21, align 8, !tbaa !29
  %23 = icmp slt i32 %17, %22
  br i1 %23, label %24, label %46

24:                                               ; preds = %16
  %25 = load ptr, ptr %2, align 8, !tbaa !14
  %26 = getelementptr inbounds nuw %struct.Map_ManStruct_t_, ptr %25, i32 0, i32 8
  %27 = load ptr, ptr %26, align 8, !tbaa !16
  %28 = getelementptr inbounds nuw %struct.Map_NodeVecStruct_t_, ptr %27, i32 0, i32 0
  %29 = load ptr, ptr %28, align 8, !tbaa !31
  %30 = load i32, ptr %4, align 4, !tbaa !8
  %31 = sext i32 %30 to i64
  %32 = getelementptr inbounds ptr, ptr %29, i64 %31
  %33 = load ptr, ptr %32, align 8, !tbaa !3
  store ptr %33, ptr %3, align 8, !tbaa !3
  %34 = load ptr, ptr %3, align 8, !tbaa !3
  %35 = getelementptr inbounds nuw %struct.Map_NodeStruct_t_, ptr %34, i32 0, i32 6
  %36 = getelementptr inbounds [3 x i32], ptr %35, i64 0, i64 0
  store i32 0, ptr %36, align 8, !tbaa !8
  %37 = load ptr, ptr %3, align 8, !tbaa !3
  %38 = getelementptr inbounds nuw %struct.Map_NodeStruct_t_, ptr %37, i32 0, i32 6
  %39 = getelementptr inbounds [3 x i32], ptr %38, i64 0, i64 1
  store i32 0, ptr %39, align 4, !tbaa !8
  %40 = load ptr, ptr %3, align 8, !tbaa !3
  %41 = getelementptr inbounds nuw %struct.Map_NodeStruct_t_, ptr %40, i32 0, i32 6
  %42 = getelementptr inbounds [3 x i32], ptr %41, i64 0, i64 2
  store i32 0, ptr %42, align 8, !tbaa !8
  br label %43

43:                                               ; preds = %24
  %44 = load i32, ptr %4, align 4, !tbaa !8
  %45 = add nsw i32 %44, 1
  store i32 %45, ptr %4, align 4, !tbaa !8
  br label %16, !llvm.loop !66

46:                                               ; preds = %16
  store i32 0, ptr %4, align 4, !tbaa !8
  br label %47

47:                                               ; preds = %68, %46
  %48 = load i32, ptr %4, align 4, !tbaa !8
  %49 = load ptr, ptr %2, align 8, !tbaa !14
  %50 = getelementptr inbounds nuw %struct.Map_ManStruct_t_, ptr %49, i32 0, i32 5
  %51 = load i32, ptr %50, align 8, !tbaa !67
  %52 = icmp slt i32 %48, %51
  br i1 %52, label %53, label %71

53:                                               ; preds = %47
  %54 = load ptr, ptr %2, align 8, !tbaa !14
  %55 = getelementptr inbounds nuw %struct.Map_ManStruct_t_, ptr %54, i32 0, i32 4
  %56 = load ptr, ptr %55, align 8, !tbaa !68
  %57 = load i32, ptr %4, align 4, !tbaa !8
  %58 = sext i32 %57 to i64
  %59 = getelementptr inbounds ptr, ptr %56, i64 %58
  %60 = load ptr, ptr %59, align 8, !tbaa !3
  store ptr %60, ptr %3, align 8, !tbaa !3
  %61 = load ptr, ptr %3, align 8, !tbaa !3
  %62 = call i32 @Map_NodeIsConst(ptr noundef %61)
  %63 = icmp ne i32 %62, 0
  br i1 %63, label %67, label %64

64:                                               ; preds = %53
  %65 = load ptr, ptr %2, align 8, !tbaa !14
  %66 = load ptr, ptr %3, align 8, !tbaa !3
  call void @Map_MappingSetRefs_rec(ptr noundef %65, ptr noundef %66)
  br label %67

67:                                               ; preds = %64, %53
  br label %68

68:                                               ; preds = %67
  %69 = load i32, ptr %4, align 4, !tbaa !8
  %70 = add nsw i32 %69, 1
  store i32 %70, ptr %4, align 4, !tbaa !8
  br label %47, !llvm.loop !69

71:                                               ; preds = %47
  call void @llvm.lifetime.end.p0(i64 4, ptr %4) #4
  call void @llvm.lifetime.end.p0(i64 8, ptr %3) #4
  ret void
}