; Function Attrs: nounwind uwtable
define void @Map_MappingSetRefs(ptr noundef readonly captures(none) %0) local_unnamed_addr #5 {
  %2 = getelementptr inbounds nuw i8, ptr %0, i64 168
  %3 = load i32, ptr %2, align 8, !tbaa !59
  %.not = icmp eq i32 %3, 0
  br i1 %.not, label %9, label %4

4:                                                ; preds = %1
  %5 = getelementptr inbounds nuw i8, ptr %0, i64 176
  %6 = load ptr, ptr %5, align 8, !tbaa !50
  %7 = getelementptr inbounds nuw i8, ptr %6, i64 8
  %8 = load ptr, ptr %7, align 8, !tbaa !61
  tail call void @Mio_LibraryCleanProfile2(ptr noundef %8) #7
  br label %9

9:                                                ; preds = %4, %1
  %10 = getelementptr inbounds nuw i8, ptr %0, i64 56
  %11 = load ptr, ptr %10, align 8, !tbaa !12
  %12 = getelementptr inbounds nuw i8, ptr %11, i64 8
  %13 = load i32, ptr %12, align 8, !tbaa !26
  %14 = icmp sgt i32 %13, 0
  br i1 %14, label %.lr.ph, label %.preheader

.lr.ph:                                           ; preds = %9
  %15 = load ptr, ptr %11, align 8, !tbaa !28
  br label %20

.preheader:                                       ; preds = %20, %9
  %16 = getelementptr inbounds nuw i8, ptr %0, i64 40
  %17 = load i32, ptr %16, align 8, !tbaa !62
  %18 = icmp sgt i32 %17, 0
  br i1 %18, label %.lr.ph20, label %._crit_edge

.lr.ph20:                                         ; preds = %.preheader
  %19 = getelementptr inbounds nuw i8, ptr %0, i64 32
  br label %29

20:                                               ; preds = %.lr.ph, %20
  %indvars.iv = phi i64 [ 0, %.lr.ph ], [ %indvars.iv.next, %20 ]
  %21 = getelementptr inbounds nuw ptr, ptr %15, i64 %indvars.iv
  %22 = load ptr, ptr %21, align 8, !tbaa !29
  %23 = getelementptr inbounds nuw i8, ptr %22, i64 32
  store i32 0, ptr %23, align 8, !tbaa !8
  %24 = getelementptr inbounds nuw i8, ptr %22, i64 36
  store i32 0, ptr %24, align 4, !tbaa !8
  %25 = getelementptr inbounds nuw i8, ptr %22, i64 40
  store i32 0, ptr %25, align 8, !tbaa !8
  %indvars.iv.next = add nuw nsw i64 %indvars.iv, 1
  %26 = load i32, ptr %12, align 8, !tbaa !26
  %27 = sext i32 %26 to i64
  %28 = icmp slt i64 %indvars.iv.next, %27
  br i1 %28, label %20, label %.preheader, !llvm.loop !63

29:                                               ; preds = %.lr.ph20, %35
  %indvars.iv22 = phi i64 [ 0, %.lr.ph20 ], [ %indvars.iv.next23, %35 ]
  %30 = load ptr, ptr %19, align 8, !tbaa !64
  %31 = getelementptr inbounds nuw ptr, ptr %30, i64 %indvars.iv22
  %32 = load ptr, ptr %31, align 8, !tbaa !29
  %33 = tail call i32 @Map_NodeIsConst(ptr noundef %32) #7
  %.not17 = icmp eq i32 %33, 0
  br i1 %.not17, label %34, label %35

34:                                               ; preds = %29
  tail call void @Map_MappingSetRefs_rec(ptr noundef nonnull %0, ptr noundef %32)
  br label %35

35:                                               ; preds = %29, %34
  %indvars.iv.next23 = add nuw nsw i64 %indvars.iv22, 1
  %36 = load i32, ptr %16, align 8, !tbaa !62
  %37 = sext i32 %36 to i64
  %38 = icmp slt i64 %indvars.iv.next23, %37
  br i1 %38, label %29, label %._crit_edge, !llvm.loop !65

._crit_edge:                                      ; preds = %35, %.preheader
  ret void
}